target datalayout = "e-m:e-p270:32:32-p271:32:32-p272:64:64-i64:64-i128:128-f80:128-n8:16:32:64-S128"
target triple = "x86_64-pc-linux-gnu"

%"class.gmx::IntegerBox" = type { %"class.gmx::BasicVector", %"class.gmx::BasicVector" }
%"class.gmx::BasicVector" = type { [3 x i32] }

; Function Attrs: mustprogress nounwind uwtable
define linkonce_odr noundef i32 @_ZNK3gmx11BasicVectorIiEixEi(ptr noundef nonnull align 4 dereferenceable(12) %0, i32 noundef %1) #2 comdat align 2 {
  %3 = alloca ptr, align 8
  %4 = alloca i32, align 4
  store ptr %0, ptr %3, align 8, !tbaa !162
  store i32 %1, ptr %4, align 4, !tbaa !9
  %5 = load ptr, ptr %3, align 8
  %6 = getelementptr inbounds nuw %"class.gmx::BasicVector", ptr %5, i32 0, i32 0
  %7 = load i32, ptr %4, align 4, !tbaa !9
  %8 = sext i32 %7 to i64
  %9 = getelementptr inbounds [3 x i32], ptr %6, i64 0, i64 %8
  %10 = load i32, ptr %9, align 4, !tbaa !9
  ret i32 %10
}

; Function Attrs: mustprogress uwtable
define noundef zeroext i1 @_ZNK3gmx10IntegerBox5emptyEv(ptr noundef nonnull align 4 dereferenceable(24) %0) #0 align 2 {
  %2 = alloca ptr, align 8
  store ptr %0, ptr %2, align 8, !tbaa !160
  %3 = load ptr, ptr %2, align 8
  %4 = getelementptr inbounds nuw %"class.gmx::IntegerBox", ptr %3, i32 0, i32 0
  %5 = call noundef i32 @_ZNK3gmx11BasicVectorIiEixEi(ptr noundef nonnull align 4 dereferenceable(12) %4, i32 noundef 0)
  %6 = getelementptr inbounds nuw %"class.gmx::IntegerBox", ptr %3, i32 0, i32 1
  %7 = call noundef i32 @_ZNK3gmx11BasicVectorIiEixEi(ptr noundef nonnull align 4 dereferenceable(12) %6, i32 noundef 0)
  %8 = icmp slt i32 %5, %7
  br i1 %8, label %9, label %21

9:                                                ; preds = %1
  %10 = getelementptr inbounds nuw %"class.gmx::IntegerBox", ptr %3, i32 0, i32 0
  %11 = call noundef i32 @_ZNK3gmx11BasicVectorIiEixEi(ptr noundef nonnull align 4 dereferenceable(12) %10, i32 noundef 1)
  %12 = getelementptr inbounds nuw %"class.gmx::IntegerBox", ptr %3, i32 0, i32 1
  %13 = call noundef i32 @_ZNK3gmx11BasicVectorIiEixEi(ptr noundef nonnull align 4 dereferenceable(12) %12, i32 noundef 1)
  %14 = icmp slt i32 %11, %13
  br i1 %14, label %15, label %21

15:                                               ; preds = %9
  %16 = getelementptr inbounds nuw %"class.gmx::IntegerBox", ptr %3, i32 0, i32 0
  %17 = call noundef i32 @_ZNK3gmx11BasicVectorIiEixEi(ptr noundef nonnull align 4 dereferenceable(12) %16, i32 noundef 2)
  %18 = getelementptr inbounds nuw %"class.gmx::IntegerBox", ptr %3, i32 0, i32 1
  %19 = call noundef i32 @_ZNK3gmx11BasicVectorIiEixEi(ptr noundef nonnull align 4 dereferenceable(12) %18, i32 noundef 2)
  %20 = icmp slt i32 %17, %19
  br label %21

21:                                               ; preds = %15, %9, %1
  %22 = phi i1 [ false, %9 ], [ false, %1 ], [ %20, %15 ]
  %23 = xor i1 %22, true
  ret i1 %23
}