; Function Attrs: mustprogress nofree norecurse nosync nounwind willreturn memory(argmem: read) uwtable
define noundef zeroext i1 @_ZNK3gmx10IntegerBox5emptyEv(ptr noundef nonnull readonly align 4 captures(none) dereferenceable(24) %0) local_unnamed_addr #13 align 2 {
  %2 = load i32, ptr %0, align 4, !tbaa !23
  %3 = getelementptr inbounds nuw i8, ptr %0, i64 12
  %4 = load i32, ptr %3, align 4, !tbaa !23
  %5 = icmp slt i32 %2, %4
  br i1 %5, label %6, label %18

6:                                                ; preds = %1
  %7 = getelementptr inbounds nuw i8, ptr %0, i64 4
  %8 = load i32, ptr %7, align 4, !tbaa !23
  %9 = getelementptr inbounds nuw i8, ptr %0, i64 16
  %10 = load i32, ptr %9, align 4, !tbaa !23
  %11 = icmp slt i32 %8, %10
  br i1 %11, label %12, label %18

12:                                               ; preds = %6
  %13 = getelementptr inbounds nuw i8, ptr %0, i64 8
  %14 = load i32, ptr %13, align 4, !tbaa !23
  %15 = getelementptr inbounds nuw i8, ptr %0, i64 20
  %16 = load i32, ptr %15, align 4, !tbaa !23
  %17 = icmp sge i32 %14, %16
  br label %18

18:                                               ; preds = %12, %6, %1
  %19 = phi i1 [ true, %6 ], [ true, %1 ], [ %17, %12 ]
  ret i1 %19
}